target datalayout = "e-m:e-p270:32:32-p271:32:32-p272:64:64-i64:64-i128:128-f80:128-n8:16:32:64-S128"
target triple = "x86_64-pc-linux-gnu"

%struct.php_file_globals = type { i32, i64, i8, i64, ptr, ptr, ptr, ptr, ptr, ptr, ptr, i32, %struct.hostent, ptr, i64 }
%struct.hostent = type { ptr, ptr, i32, i32, ptr }
%struct._zend_refcounted_h = type { i32, %union.anon }
%union.anon = type { i32 }
%struct._zval_struct = type { %union._zend_value, %union.anon.3, %union.anon.6 }
%union._zend_value = type { i64 }
%union.anon.3 = type { i32 }
%union.anon.6 = type { i32 }
%struct._zend_llist = type { ptr, ptr, i64, i64, ptr, i8, ptr }
%struct.__va_list_tag = type { i32, i32, ptr, ptr }

@file_globals = external global %struct.php_file_globals, align 8
@.str = private unnamed_addr constant [3 x i8] c"%s\00", align 1

; Function Attrs: nounwind uwtable
define void @php_stream_wrapper_log_error(ptr noundef %0, i32 noundef %1, ptr noundef %2, ...) #0 {
  %4 = alloca ptr, align 8
  %5 = alloca ptr, align 8
  %6 = alloca i64, align 8
  %7 = alloca ptr, align 8
  %8 = alloca %struct._zval_struct, align 8
  %9 = alloca ptr, align 8
  %10 = alloca i32, align 4
  %11 = alloca ptr, align 8
  %12 = alloca ptr, align 8
  %13 = alloca i64, align 8
  %14 = alloca ptr, align 8
  %15 = alloca i64, align 8
  %16 = alloca ptr, align 8
  %17 = alloca ptr, align 8
  %18 = alloca ptr, align 8
  %19 = alloca ptr, align 8
  %20 = alloca i64, align 8
  %21 = alloca ptr, align 8
  %22 = alloca ptr, align 8
  %23 = alloca i32, align 4
  %24 = alloca ptr, align 8
  %25 = alloca [1 x %struct.__va_list_tag], align 16
  %26 = alloca ptr, align 8
  %27 = alloca ptr, align 8
  %28 = alloca %struct._zend_llist, align 8
  store ptr %0, ptr %22, align 8
  store i32 %1, ptr %23, align 4
  store ptr %2, ptr %24, align 8
  store ptr null, ptr %26, align 8
  %29 = getelementptr inbounds [1 x %struct.__va_list_tag], ptr %25, i64 0, i64 0
  call void @llvm.va_start(ptr %29)
  %30 = load ptr, ptr %24, align 8
  %31 = getelementptr inbounds [1 x %struct.__va_list_tag], ptr %25, i64 0, i64 0
  %32 = call i64 @zend_vspprintf(ptr noundef %26, i64 noundef 0, ptr noundef %30, ptr noundef %31)
  %33 = getelementptr inbounds [1 x %struct.__va_list_tag], ptr %25, i64 0, i64 0
  call void @llvm.va_end(ptr %33)
  %34 = load i32, ptr %23, align 4
  %35 = and i32 %34, 8
  %36 = icmp ne i32 %35, 0
  br i1 %36, label %40, label %37

37:                                               ; preds = %3
  %38 = load ptr, ptr %22, align 8
  %39 = icmp eq ptr %38, null
  br i1 %39, label %40, label %43

40:                                               ; preds = %37, %3
  %41 = load ptr, ptr %26, align 8
  call void (ptr, i32, ptr, ...) @php_error_docref(ptr noundef null, i32 noundef 2, ptr noundef @.str, ptr noundef %41)
  %42 = load ptr, ptr %26, align 8
  call void @_efree(ptr noundef %42)
  br label %332

43:                                               ; preds = %37
  store ptr null, ptr %27, align 8
  %44 = load ptr, ptr getelementptr inbounds (%struct.php_file_globals, ptr @file_globals, i32 0, i32 10), align 8
  %45 = icmp ne ptr %44, null
  br i1 %45, label %49, label %46

46:                                               ; preds = %43
  %47 = call noalias ptr @_emalloc_56()
  store ptr %47, ptr getelementptr inbounds (%struct.php_file_globals, ptr @file_globals, i32 0, i32 10), align 8
  %48 = load ptr, ptr getelementptr inbounds (%struct.php_file_globals, ptr @file_globals, i32 0, i32 10), align 8
  call void @_zend_hash_init(ptr noundef %48, i32 noundef 8, ptr noundef @wrapper_list_dtor, i1 noundef zeroext false)
  br label %66

49:                                               ; preds = %43
  %50 = load ptr, ptr getelementptr inbounds (%struct.php_file_globals, ptr @file_globals, i32 0, i32 10), align 8
  store ptr %50, ptr %18, align 8
  store ptr %22, ptr %19, align 8
  store i64 8, ptr %20, align 8
  %51 = load ptr, ptr %18, align 8
  %52 = load ptr, ptr %19, align 8
  %53 = load i64, ptr %20, align 8
  %54 = call ptr @zend_hash_str_find(ptr noundef %51, ptr noundef %52, i64 noundef %53) #14
  store ptr %54, ptr %21, align 8
  %55 = load ptr, ptr %21, align 8
  %56 = icmp ne ptr %55, null
  br i1 %56, label %57, label %63

57:                                               ; preds = %49
  %58 = load ptr, ptr %21, align 8
  %59 = load ptr, ptr %58, align 8
  %60 = icmp ne ptr %59, null
  call void @llvm.assume(i1 %60)
  %61 = load ptr, ptr %21, align 8
  %62 = load ptr, ptr %61, align 8
  store ptr %62, ptr %17, align 8
  br label %64

63:                                               ; preds = %49
  store ptr null, ptr %17, align 8
  br label %64

64:                                               ; preds = %63, %57
  %65 = load ptr, ptr %17, align 8
  store ptr %65, ptr %27, align 8
  br label %66

66:                                               ; preds = %64, %46
  %67 = load ptr, ptr %27, align 8
  %68 = icmp ne ptr %67, null
  br i1 %68, label %330, label %69

69:                                               ; preds = %66
  call void @zend_llist_init(ptr noundef %28, i64 noundef 8, ptr noundef @wrapper_error_dtor, i8 noundef zeroext 0)
  %70 = load ptr, ptr getelementptr inbounds (%struct.php_file_globals, ptr @file_globals, i32 0, i32 10), align 8
  store ptr %70, ptr %11, align 8
  store ptr %22, ptr %12, align 8
  store i64 8, ptr %13, align 8
  store ptr %28, ptr %14, align 8
  store i64 56, ptr %15, align 8
  %71 = load ptr, ptr %11, align 8
  %72 = getelementptr inbounds %struct._zend_refcounted_h, ptr %71, i32 0, i32 1
  %73 = load i32, ptr %72, align 4
  store i32 %73, ptr %10, align 4
  %74 = load i32, ptr %10, align 4
  %75 = and i32 %74, 1008
  %76 = and i32 %75, 128
  %77 = icmp ne i32 %76, 0
  br i1 %77, label %78, label %81

78:                                               ; preds = %69
  %79 = load i64, ptr %15, align 8
  %80 = call noalias ptr @__zend_malloc(i64 noundef %79) #15
  br label %310

81:                                               ; preds = %69
  %82 = load i64, ptr %15, align 8
  %83 = call i1 @llvm.is.constant.i64(i64 %82)
  br i1 %83, label %84, label %305

84:                                               ; preds = %81
  %85 = load i64, ptr %15, align 8
  %86 = icmp ule i64 %85, 8
  br i1 %86, label %87, label %89

87:                                               ; preds = %84
  %88 = call noalias ptr @_emalloc_8() #14
  br label %303

89:                                               ; preds = %84
  %90 = load i64, ptr %15, align 8
  %91 = icmp ule i64 %90, 16
  br i1 %91, label %92, label %94

92:                                               ; preds = %89
  %93 = call noalias ptr @_emalloc_16() #14
  br label %301

94:                                               ; preds = %89
  %95 = load i64, ptr %15, align 8
  %96 = icmp ule i64 %95, 24
  br i1 %96, label %97, label %99

97:                                               ; preds = %94
  %98 = call noalias ptr @_emalloc_24() #14
  br label %299

99:                                               ; preds = %94
  %100 = load i64, ptr %15, align 8
  %101 = icmp ule i64 %100, 32
  br i1 %101, label %102, label %104

102:                                              ; preds = %99
  %103 = call noalias ptr @_emalloc_32() #14
  br label %297

104:                                              ; preds = %99
  %105 = load i64, ptr %15, align 8
  %106 = icmp ule i64 %105, 40
  br i1 %106, label %107, label %109

107:                                              ; preds = %104
  %108 = call noalias ptr @_emalloc_40() #14
  br label %295

109:                                              ; preds = %104
  %110 = load i64, ptr %15, align 8
  %111 = icmp ule i64 %110, 48
  br i1 %111, label %112, label %114

112:                                              ; preds = %109
  %113 = call noalias ptr @_emalloc_48() #14
  br label %293

114:                                              ; preds = %109
  %115 = load i64, ptr %15, align 8
  %116 = icmp ule i64 %115, 56
  br i1 %116, label %117, label %119

117:                                              ; preds = %114
  %118 = call noalias ptr @_emalloc_56() #14
  br label %291

119:                                              ; preds = %114
  %120 = load i64, ptr %15, align 8
  %121 = icmp ule i64 %120, 64
  br i1 %121, label %122, label %124

122:                                              ; preds = %119
  %123 = call noalias ptr @_emalloc_64() #14
  br label %289

124:                                              ; preds = %119
  %125 = load i64, ptr %15, align 8
  %126 = icmp ule i64 %125, 80
  br i1 %126, label %127, label %129

127:                                              ; preds = %124
  %128 = call noalias ptr @_emalloc_80() #14
  br label %287

129:                                              ; preds = %124
  %130 = load i64, ptr %15, align 8
  %131 = icmp ule i64 %130, 96
  br i1 %131, label %132, label %134

132:                                              ; preds = %129
  %133 = call noalias ptr @_emalloc_96() #14
  br label %285

134:                                              ; preds = %129
  %135 = load i64, ptr %15, align 8
  %136 = icmp ule i64 %135, 112
  br i1 %136, label %137, label %139

137:                                              ; preds = %134
  %138 = call noalias ptr @_emalloc_112() #14
  br label %283

139:                                              ; preds = %134
  %140 = load i64, ptr %15, align 8
  %141 = icmp ule i64 %140, 128
  br i1 %141, label %142, label %144

142:                                              ; preds = %139
  %143 = call noalias ptr @_emalloc_128() #14
  br label %281

144:                                              ; preds = %139
  %145 = load i64, ptr %15, align 8
  %146 = icmp ule i64 %145, 160
  br i1 %146, label %147, label %149

147:                                              ; preds = %144
  %148 = call noalias ptr @_emalloc_160() #14
  br label %279

149:                                              ; preds = %144
  %150 = load i64, ptr %15, align 8
  %151 = icmp ule i64 %150, 192
  br i1 %151, label %152, label %154

152:                                              ; preds = %149
  %153 = call noalias ptr @_emalloc_192() #14
  br label %277

154:                                              ; preds = %149
  %155 = load i64, ptr %15, align 8
  %156 = icmp ule i64 %155, 224
  br i1 %156, label %157, label %159

157:                                              ; preds = %154
  %158 = call noalias ptr @_emalloc_224() #14
  br label %275

159:                                              ; preds = %154
  %160 = load i64, ptr %15, align 8
  %161 = icmp ule i64 %160, 256
  br i1 %161, label %162, label %164

162:                                              ; preds = %159
  %163 = call noalias ptr @_emalloc_256() #14
  br label %273

164:                                              ; preds = %159
  %165 = load i64, ptr %15, align 8
  %166 = icmp ule i64 %165, 320
  br i1 %166, label %167, label %169

167:                                              ; preds = %164
  %168 = call noalias ptr @_emalloc_320() #14
  br label %271

169:                                              ; preds = %164
  %170 = load i64, ptr %15, align 8
  %171 = icmp ule i64 %170, 384
  br i1 %171, label %172, label %174

172:                                              ; preds = %169
  %173 = call noalias ptr @_emalloc_384() #14
  br label %269

174:                                              ; preds = %169
  %175 = load i64, ptr %15, align 8
  %176 = icmp ule i64 %175, 448
  br i1 %176, label %177, label %179

177:                                              ; preds = %174
  %178 = call noalias ptr @_emalloc_448() #14
  br label %267

179:                                              ; preds = %174
  %180 = load i64, ptr %15, align 8
  %181 = icmp ule i64 %180, 512
  br i1 %181, label %182, label %184

182:                                              ; preds = %179
  %183 = call noalias ptr @_emalloc_512() #14
  br label %265

184:                                              ; preds = %179
  %185 = load i64, ptr %15, align 8
  %186 = icmp ule i64 %185, 640
  br i1 %186, label %187, label %189

187:                                              ; preds = %184
  %188 = call noalias ptr @_emalloc_640() #14
  br label %263

189:                                              ; preds = %184
  %190 = load i64, ptr %15, align 8
  %191 = icmp ule i64 %190, 768
  br i1 %191, label %192, label %194

192:                                              ; preds = %189
  %193 = call noalias ptr @_emalloc_768() #14
  br label %261

194:                                              ; preds = %189
  %195 = load i64, ptr %15, align 8
  %196 = icmp ule i64 %195, 896
  br i1 %196, label %197, label %199

197:                                              ; preds = %194
  %198 = call noalias ptr @_emalloc_896() #14
  br label %259

199:                                              ; preds = %194
  %200 = load i64, ptr %15, align 8
  %201 = icmp ule i64 %200, 1024
  br i1 %201, label %202, label %204

202:                                              ; preds = %199
  %203 = call noalias ptr @_emalloc_1024() #14
  br label %257

204:                                              ; preds = %199
  %205 = load i64, ptr %15, align 8
  %206 = icmp ule i64 %205, 1280
  br i1 %206, label %207, label %209

207:                                              ; preds = %204
  %208 = call noalias ptr @_emalloc_1280() #14
  br label %255

209:                                              ; preds = %204
  %210 = load i64, ptr %15, align 8
  %211 = icmp ule i64 %210, 1536
  br i1 %211, label %212, label %214

212:                                              ; preds = %209
  %213 = call noalias ptr @_emalloc_1536() #14
  br label %253

214:                                              ; preds = %209
  %215 = load i64, ptr %15, align 8
  %216 = icmp ule i64 %215, 1792
  br i1 %216, label %217, label %219

217:                                              ; preds = %214
  %218 = call noalias ptr @_emalloc_1792() #14
  br label %251

219:                                              ; preds = %214
  %220 = load i64, ptr %15, align 8
  %221 = icmp ule i64 %220, 2048
  br i1 %221, label %222, label %224

222:                                              ; preds = %219
  %223 = call noalias ptr @_emalloc_2048() #14
  br label %249

224:                                              ; preds = %219
  %225 = load i64, ptr %15, align 8
  %226 = icmp ule i64 %225, 2560
  br i1 %226, label %227, label %229

227:                                              ; preds = %224
  %228 = call noalias ptr @_emalloc_2560() #14
  br label %247

229:                                              ; preds = %224
  %230 = load i64, ptr %15, align 8
  %231 = icmp ule i64 %230, 3072
  br i1 %231, label %232, label %234

232:                                              ; preds = %229
  %233 = call noalias ptr @_emalloc_3072() #14
  br label %245

234:                                              ; preds = %229
  %235 = load i64, ptr %15, align 8
  %236 = icmp ule i64 %235, 2093056
  br i1 %236, label %237, label %240

237:                                              ; preds = %234
  %238 = load i64, ptr %15, align 8
  %239 = call noalias ptr @_emalloc_large(i64 noundef %238) #15
  br label %243

240:                                              ; preds = %234
  %241 = load i64, ptr %15, align 8
  %242 = call noalias ptr @_emalloc_huge(i64 noundef %241) #15
  br label %243

243:                                              ; preds = %240, %237
  %244 = phi ptr [ %239, %237 ], [ %242, %240 ]
  br label %245

245:                                              ; preds = %243, %232
  %246 = phi ptr [ %233, %232 ], [ %244, %243 ]
  br label %247

247:                                              ; preds = %245, %227
  %248 = phi ptr [ %228, %227 ], [ %246, %245 ]
  br label %249

249:                                              ; preds = %247, %222
  %250 = phi ptr [ %223, %222 ], [ %248, %247 ]
  br label %251

251:                                              ; preds = %249, %217
  %252 = phi ptr [ %218, %217 ], [ %250, %249 ]
  br label %253

253:                                              ; preds = %251, %212
  %254 = phi ptr [ %213, %212 ], [ %252, %251 ]
  br label %255

255:                                              ; preds = %253, %207
  %256 = phi ptr [ %208, %207 ], [ %254, %253 ]
  br label %257

257:                                              ; preds = %255, %202
  %258 = phi ptr [ %203, %202 ], [ %256, %255 ]
  br label %259

259:                                              ; preds = %257, %197
  %260 = phi ptr [ %198, %197 ], [ %258, %257 ]
  br label %261

261:                                              ; preds = %259, %192
  %262 = phi ptr [ %193, %192 ], [ %260, %259 ]
  br label %263

263:                                              ; preds = %261, %187
  %264 = phi ptr [ %188, %187 ], [ %262, %261 ]
  br label %265

265:                                              ; preds = %263, %182
  %266 = phi ptr [ %183, %182 ], [ %264, %263 ]
  br label %267

267:                                              ; preds = %265, %177
  %268 = phi ptr [ %178, %177 ], [ %266, %265 ]
  br label %269

269:                                              ; preds = %267, %172
  %270 = phi ptr [ %173, %172 ], [ %268, %267 ]
  br label %271

271:                                              ; preds = %269, %167
  %272 = phi ptr [ %168, %167 ], [ %270, %269 ]
  br label %273

273:                                              ; preds = %271, %162
  %274 = phi ptr [ %163, %162 ], [ %272, %271 ]
  br label %275

275:                                              ; preds = %273, %157
  %276 = phi ptr [ %158, %157 ], [ %274, %273 ]
  br label %277

277:                                              ; preds = %275, %152
  %278 = phi ptr [ %153, %152 ], [ %276, %275 ]
  br label %279

279:                                              ; preds = %277, %147
  %280 = phi ptr [ %148, %147 ], [ %278, %277 ]
  br label %281

281:                                              ; preds = %279, %142
  %282 = phi ptr [ %143, %142 ], [ %280, %279 ]
  br label %283

283:                                              ; preds = %281, %137
  %284 = phi ptr [ %138, %137 ], [ %282, %281 ]
  br label %285

285:                                              ; preds = %283, %132
  %286 = phi ptr [ %133, %132 ], [ %284, %283 ]
  br label %287

287:                                              ; preds = %285, %127
  %288 = phi ptr [ %128, %127 ], [ %286, %285 ]
  br label %289

289:                                              ; preds = %287, %122
  %290 = phi ptr [ %123, %122 ], [ %288, %287 ]
  br label %291

291:                                              ; preds = %289, %117
  %292 = phi ptr [ %118, %117 ], [ %290, %289 ]
  br label %293

293:                                              ; preds = %291, %112
  %294 = phi ptr [ %113, %112 ], [ %292, %291 ]
  br label %295

295:                                              ; preds = %293, %107
  %296 = phi ptr [ %108, %107 ], [ %294, %293 ]
  br label %297

297:                                              ; preds = %295, %102
  %298 = phi ptr [ %103, %102 ], [ %296, %295 ]
  br label %299

299:                                              ; preds = %297, %97
  %300 = phi ptr [ %98, %97 ], [ %298, %297 ]
  br label %301

301:                                              ; preds = %299, %92
  %302 = phi ptr [ %93, %92 ], [ %300, %299 ]
  br label %303

303:                                              ; preds = %301, %87
  %304 = phi ptr [ %88, %87 ], [ %302, %301 ]
  br label %308

305:                                              ; preds = %81
  %306 = load i64, ptr %15, align 8
  %307 = call noalias ptr @_emalloc(i64 noundef %306) #15
  br label %308

308:                                              ; preds = %305, %303
  %309 = phi ptr [ %304, %303 ], [ %307, %305 ]
  br label %310

310:                                              ; preds = %308, %78
  %311 = phi ptr [ %80, %78 ], [ %309, %308 ]
  store ptr %311, ptr %16, align 8
  %312 = load ptr, ptr %16, align 8
  %313 = load ptr, ptr %14, align 8
  %314 = load i64, ptr %15, align 8
  call void @llvm.memcpy.p0.p0.i64(ptr align 1 %312, ptr align 1 %313, i64 %314, i1 false)
  %315 = load ptr, ptr %11, align 8
  %316 = load ptr, ptr %12, align 8
  %317 = load i64, ptr %13, align 8
  %318 = load ptr, ptr %16, align 8
  store ptr %315, ptr %4, align 8
  store ptr %316, ptr %5, align 8
  store i64 %317, ptr %6, align 8
  store ptr %318, ptr %7, align 8
  %319 = load ptr, ptr %7, align 8
  store ptr %319, ptr %8, align 8
  %320 = getelementptr inbounds %struct._zval_struct, ptr %8, i32 0, i32 1
  store i32 13, ptr %320, align 8
  %321 = load ptr, ptr %4, align 8
  %322 = load ptr, ptr %5, align 8
  %323 = load i64, ptr %6, align 8
  %324 = call ptr @zend_hash_str_update(ptr noundef %321, ptr noundef %322, i64 noundef %323, ptr noundef %8) #14
  store ptr %324, ptr %9, align 8
  %325 = load ptr, ptr %9, align 8
  %326 = load ptr, ptr %325, align 8
  %327 = icmp ne ptr %326, null
  call void @llvm.assume(i1 %327)
  %328 = load ptr, ptr %9, align 8
  %329 = load ptr, ptr %328, align 8
  store ptr %329, ptr %27, align 8
  br label %330

330:                                              ; preds = %310, %66
  %331 = load ptr, ptr %27, align 8
  call void @zend_llist_add_element(ptr noundef %331, ptr noundef %26)
  br label %332

332:                                              ; preds = %330, %40
  ret void
}