; Function Attrs: nounwind uwtable
define void @php_stream_wrapper_log_error(ptr noundef %0, i32 noundef %1, ptr noundef %2, ...) local_unnamed_addr #2 {
  %4 = alloca %struct._zval_struct, align 8
  %5 = alloca ptr, align 8
  %6 = alloca [1 x %struct.__va_list_tag], align 16
  %7 = alloca ptr, align 8
  %8 = alloca %struct._zend_llist, align 8
  store ptr %0, ptr %5, align 8
  store ptr null, ptr %7, align 8
  call void @llvm.va_start(ptr nonnull %6)
  %9 = call i64 @zend_vspprintf(ptr noundef nonnull %7, i64 noundef 0, ptr noundef %2, ptr noundef nonnull %6) #27
  call void @llvm.va_end(ptr nonnull %6)
  %10 = and i32 %1, 8
  %11 = icmp ne i32 %10, 0
  %12 = icmp eq ptr %0, null
  %or.cond = or i1 %11, %12
  br i1 %or.cond, label %13, label %16

13:                                               ; preds = %3
  %14 = load ptr, ptr %7, align 8
  call void (ptr, i32, ptr, ...) @php_error_docref(ptr noundef null, i32 noundef 2, ptr noundef nonnull @.str, ptr noundef %14) #27
  %15 = load ptr, ptr %7, align 8
  call void @_efree(ptr noundef %15) #27
  br label %36

16:                                               ; preds = %3
  %17 = load ptr, ptr getelementptr inbounds (%struct.php_file_globals, ptr @file_globals, i64 0, i32 10), align 8
  %.not = icmp eq ptr %17, null
  br i1 %.not, label %18, label %20

18:                                               ; preds = %16
  %19 = call noalias ptr @_emalloc_56() #27
  store ptr %19, ptr getelementptr inbounds (%struct.php_file_globals, ptr @file_globals, i64 0, i32 10), align 8
  call void @_zend_hash_init(ptr noundef %19, i32 noundef 8, ptr noundef nonnull @wrapper_list_dtor, i1 noundef zeroext false) #27
  br label %22

20:                                               ; preds = %16
  %21 = call ptr @zend_hash_str_find(ptr noundef nonnull %17, ptr noundef nonnull %5, i64 noundef 8) #27
  %.not65 = icmp eq ptr %21, null
  br i1 %.not65, label %22, label %35

22:                                               ; preds = %18, %20
  call void @zend_llist_init(ptr noundef nonnull %8, i64 noundef 8, ptr noundef nonnull @wrapper_error_dtor, i8 noundef zeroext 0) #27
  %23 = load ptr, ptr getelementptr inbounds (%struct.php_file_globals, ptr @file_globals, i64 0, i32 10), align 8
  %24 = getelementptr inbounds i8, ptr %23, i64 4
  %25 = load i32, ptr %24, align 4
  %26 = and i32 %25, 128
  %.not67 = icmp eq i32 %26, 0
  br i1 %.not67, label %29, label %27

27:                                               ; preds = %22
  %28 = call noalias dereferenceable_or_null(56) ptr @__zend_malloc(i64 noundef 56) #29
  br label %31

29:                                               ; preds = %22
  %30 = call noalias ptr @_emalloc_56() #27
  br label %31

31:                                               ; preds = %29, %27
  %32 = phi ptr [ %28, %27 ], [ %30, %29 ]
  call void @llvm.memcpy.p0.p0.i64(ptr noundef nonnull align 1 dereferenceable(56) %32, ptr noundef nonnull align 8 dereferenceable(56) %8, i64 56, i1 false)
  store ptr %32, ptr %4, align 8
  %33 = getelementptr inbounds i8, ptr %4, i64 8
  store i32 13, ptr %33, align 8
  %34 = call ptr @zend_hash_str_update(ptr noundef nonnull %23, ptr noundef nonnull %5, i64 noundef 8, ptr noundef nonnull %4) #27
  br label %35

35:                                               ; preds = %20, %31
  %.1.in = phi ptr [ %34, %31 ], [ %21, %20 ]
  %.1 = load ptr, ptr %.1.in, align 8, !nonnull !4, !noundef !4
  call void @zend_llist_add_element(ptr noundef nonnull %.1, ptr noundef nonnull %7) #27
  br label %36

36:                                               ; preds = %35, %13
  ret void
}